target datalayout = "e-m:e-p270:32:32-p271:32:32-p272:64:64-i64:64-i128:128-f80:128-n8:16:32:64-S128"
target triple = "x86_64-pc-linux-gnu"

%struct.dsa_st = type { i32, i32, %struct.ffc_params_st, ptr, ptr, i32, ptr, %struct.CRYPTO_REF_COUNT, %struct.crypto_ex_data_st, ptr, ptr, ptr, ptr, i64 }
%struct.ffc_params_st = type { ptr, ptr, ptr, ptr, ptr, i64, i32, i32, i32, i32, i32, ptr, ptr, i32 }
%struct.CRYPTO_REF_COUNT = type { i32 }
%struct.crypto_ex_data_st = type { ptr, ptr }
%struct.evp_pkey_st = type { i32, i32, ptr, ptr, ptr, %union.legacy_pkey_st, %union.legacy_pkey_st, %struct.CRYPTO_REF_COUNT, ptr, ptr, i32, i8, %struct.crypto_ex_data_st, ptr, ptr, i64, ptr, i64, %struct.anon }
%union.legacy_pkey_st = type { ptr }
%struct.anon = type { i32, i32, i32 }

; Function Attrs: nounwind uwtable
define internal i32 @dsa_copy_parameters(ptr noundef %0, ptr noundef %1) #0 {
  %3 = alloca i32, align 4
  %4 = alloca ptr, align 8
  %5 = alloca ptr, align 8
  store ptr %0, ptr %4, align 8, !tbaa !3
  store ptr %1, ptr %5, align 8, !tbaa !3
  %6 = load ptr, ptr %4, align 8, !tbaa !3
  %7 = getelementptr inbounds nuw %struct.evp_pkey_st, ptr %6, i32 0, i32 5
  %8 = load ptr, ptr %7, align 8, !tbaa !37
  %9 = icmp eq ptr %8, null
  br i1 %9, label %10, label %20

10:                                               ; preds = %2
  %11 = call ptr @DSA_new()
  %12 = load ptr, ptr %4, align 8, !tbaa !3
  %13 = getelementptr inbounds nuw %struct.evp_pkey_st, ptr %12, i32 0, i32 5
  store ptr %11, ptr %13, align 8, !tbaa !37
  %14 = load ptr, ptr %4, align 8, !tbaa !3
  %15 = getelementptr inbounds nuw %struct.evp_pkey_st, ptr %14, i32 0, i32 5
  %16 = load ptr, ptr %15, align 8, !tbaa !37
  %17 = icmp eq ptr %16, null
  br i1 %17, label %18, label %19

18:                                               ; preds = %10
  store i32 0, ptr %3, align 4
  br label %39

19:                                               ; preds = %10
  br label %20

20:                                               ; preds = %19, %2
  %21 = load ptr, ptr %4, align 8, !tbaa !3
  %22 = getelementptr inbounds nuw %struct.evp_pkey_st, ptr %21, i32 0, i32 5
  %23 = load ptr, ptr %22, align 8, !tbaa !37
  %24 = getelementptr inbounds nuw %struct.dsa_st, ptr %23, i32 0, i32 2
  %25 = load ptr, ptr %5, align 8, !tbaa !3
  %26 = getelementptr inbounds nuw %struct.evp_pkey_st, ptr %25, i32 0, i32 5
  %27 = load ptr, ptr %26, align 8, !tbaa !37
  %28 = getelementptr inbounds nuw %struct.dsa_st, ptr %27, i32 0, i32 2
  %29 = call i32 @ossl_ffc_params_copy(ptr noundef %24, ptr noundef %28)
  %30 = icmp ne i32 %29, 0
  br i1 %30, label %32, label %31

31:                                               ; preds = %20
  store i32 0, ptr %3, align 4
  br label %39

32:                                               ; preds = %20
  %33 = load ptr, ptr %4, align 8, !tbaa !3
  %34 = getelementptr inbounds nuw %struct.evp_pkey_st, ptr %33, i32 0, i32 5
  %35 = load ptr, ptr %34, align 8, !tbaa !37
  %36 = getelementptr inbounds nuw %struct.dsa_st, ptr %35, i32 0, i32 13
  %37 = load i64, ptr %36, align 8, !tbaa !36
  %38 = add i64 %37, 1
  store i64 %38, ptr %36, align 8, !tbaa !36
  store i32 1, ptr %3, align 4
  br label %39

39:                                               ; preds = %32, %31, %18
  %40 = load i32, ptr %3, align 4
  ret i32 %40
}