; Function Attrs: nounwind uwtable
define internal range(i32 0, 2) i32 @dsa_copy_parameters(ptr noundef captures(none) %0, ptr noundef readonly captures(none) %1) #0 {
  %3 = getelementptr inbounds nuw i8, ptr %0, i64 32
  %4 = load ptr, ptr %3, align 8, !tbaa !29
  %5 = icmp eq ptr %4, null
  br i1 %5, label %6, label %9

6:                                                ; preds = %2
  %7 = tail call ptr @DSA_new() #5
  store ptr %7, ptr %3, align 8, !tbaa !29
  %8 = icmp eq ptr %7, null
  br i1 %8, label %21, label %9

9:                                                ; preds = %6, %2
  %10 = phi ptr [ %7, %6 ], [ %4, %2 ]
  %11 = getelementptr inbounds nuw i8, ptr %10, i64 8
  %12 = getelementptr inbounds nuw i8, ptr %1, i64 32
  %13 = load ptr, ptr %12, align 8, !tbaa !29
  %14 = getelementptr inbounds nuw i8, ptr %13, i64 8
  %15 = tail call i32 @ossl_ffc_params_copy(ptr noundef nonnull %11, ptr noundef nonnull %14) #5
  %.not = icmp eq i32 %15, 0
  br i1 %.not, label %21, label %16

16:                                               ; preds = %9
  %17 = load ptr, ptr %3, align 8, !tbaa !29
  %18 = getelementptr inbounds nuw i8, ptr %17, i64 192
  %19 = load i64, ptr %18, align 8, !tbaa !28
  %20 = add i64 %19, 1
  store i64 %20, ptr %18, align 8, !tbaa !28
  br label %21

21:                                               ; preds = %9, %6, %16
  %.0 = phi i32 [ 1, %16 ], [ 0, %6 ], [ 0, %9 ]
  ret i32 %.0
}